; Function Attrs: mustprogress uwtable
define hidden noundef ptr @_ZN4cvc58internal6theory5arith6linear10Constraint8getFloorEv(ptr noundef nonnull align 8 dereferenceable(145) %this) local_unnamed_addr #4 align 2 personality ptr @__gxx_personality_v0 {
entry:
  %floor = alloca %"class.cvc5::internal::DeltaRational", align 8
  %ref.tmp = alloca %"class.cvc5::internal::Rational", align 8
  %ref.tmp2 = alloca %"class.cvc5::internal::Integer", align 8
  %d_value.i = getelementptr inbounds i8, ptr %this, i64 8
  call void @_ZNK4cvc58internal13DeltaRational5floorEv(ptr nonnull sret(%"class.cvc5::internal::Integer") align 8 %ref.tmp2, ptr noundef nonnull align 8 dereferenceable(64) %d_value.i)
  invoke void @__gmpq_init(ptr noundef nonnull %ref.tmp)
          to label %.noexc unwind label %lpad

.noexc:                                           ; preds = %entry
  invoke void @__gmpq_set_z(ptr noundef nonnull %ref.tmp, ptr noundef nonnull %ref.tmp2)
          to label %.noexc4 unwind label %lpad

.noexc4:                                          ; preds = %.noexc
  invoke void @__gmpq_canonicalize(ptr noundef nonnull %ref.tmp)
          to label %invoke.cont unwind label %lpad.i

lpad.i:                                           ; preds = %.noexc4
  %0 = landingpad { ptr, i32 }
          cleanup
  invoke void @__gmpq_clear(ptr noundef nonnull %ref.tmp)
          to label %ehcleanup unwind label %terminate.lpad.i.i

terminate.lpad.i.i:                               ; preds = %lpad.i
  %1 = landingpad { ptr, i32 }
          catch ptr null
  %2 = extractvalue { ptr, i32 } %1, 0
  call void @__clang_call_terminate(ptr %2) #23
  unreachable

invoke.cont:                                      ; preds = %.noexc4
  invoke void @_ZN4cvc58internal13DeltaRationalC2ERKNS0_8RationalE(ptr noundef nonnull align 8 dereferenceable(64) %floor, ptr noundef nonnull align 8 dereferenceable(32) %ref.tmp)
          to label %invoke.cont4 unwind label %lpad3

invoke.cont4:                                     ; preds = %invoke.cont
  invoke void @__gmpq_clear(ptr noundef nonnull %ref.tmp)
          to label %_ZN4cvc58internal8RationalD2Ev.exit unwind label %terminate.lpad.i.i5

terminate.lpad.i.i5:                              ; preds = %invoke.cont4
  %3 = landingpad { ptr, i32 }
          catch ptr null
  %4 = extractvalue { ptr, i32 } %3, 0
  call void @__clang_call_terminate(ptr %4) #23
  unreachable

_ZN4cvc58internal8RationalD2Ev.exit:              ; preds = %invoke.cont4
  invoke void @__gmpz_clear(ptr noundef nonnull %ref.tmp2)
          to label %_ZN4cvc58internal7IntegerD2Ev.exit unwind label %terminate.lpad.i.i7

terminate.lpad.i.i7:                              ; preds = %_ZN4cvc58internal8RationalD2Ev.exit
  %5 = landingpad { ptr, i32 }
          catch ptr null
  %6 = extractvalue { ptr, i32 } %5, 0
  call void @__clang_call_terminate(ptr %6) #23
  unreachable

_ZN4cvc58internal7IntegerD2Ev.exit:               ; preds = %_ZN4cvc58internal8RationalD2Ev.exit
  %d_database = getelementptr inbounds i8, ptr %this, i64 72
  %7 = load ptr, ptr %d_database, align 8
  %8 = load i32, ptr %this, align 8
  %d_type.i = getelementptr inbounds i8, ptr %this, i64 4
  %9 = load i32, ptr %d_type.i, align 4
  %call11 = invoke noundef ptr @_ZN4cvc58internal6theory5arith6linear18ConstraintDatabase13getConstraintEjNS3_14ConstraintTypeERKNS0_13DeltaRationalE(ptr noundef nonnull align 8 dereferenceable(488) %7, i32 noundef %8, i32 noundef %9, ptr noundef nonnull align 8 dereferenceable(64) %floor)
          to label %invoke.cont10 unwind label %lpad5

invoke.cont10:                                    ; preds = %_ZN4cvc58internal7IntegerD2Ev.exit
  %k.i = getelementptr inbounds i8, ptr %floor, i64 32
  invoke void @__gmpq_clear(ptr noundef nonnull %k.i)
          to label %_ZN4cvc58internal8RationalD2Ev.exit.i unwind label %terminate.lpad.i.i.i

terminate.lpad.i.i.i:                             ; preds = %invoke.cont10
  %10 = landingpad { ptr, i32 }
          catch ptr null
  %11 = extractvalue { ptr, i32 } %10, 0
  call void @__clang_call_terminate(ptr %11) #23
  unreachable

_ZN4cvc58internal8RationalD2Ev.exit.i:            ; preds = %invoke.cont10
  invoke void @__gmpq_clear(ptr noundef nonnull %floor)
          to label %_ZN4cvc58internal13DeltaRationalD2Ev.exit unwind label %terminate.lpad.i.i1.i

terminate.lpad.i.i1.i:                            ; preds = %_ZN4cvc58internal8RationalD2Ev.exit.i
  %12 = landingpad { ptr, i32 }
          catch ptr null
  %13 = extractvalue { ptr, i32 } %12, 0
  call void @__clang_call_terminate(ptr %13) #23
  unreachable

_ZN4cvc58internal13DeltaRationalD2Ev.exit:        ; preds = %_ZN4cvc58internal8RationalD2Ev.exit.i
  ret ptr %call11

lpad:                                             ; preds = %.noexc, %entry
  %14 = landingpad { ptr, i32 }
          cleanup
  br label %ehcleanup

lpad3:                                            ; preds = %invoke.cont
  %15 = landingpad { ptr, i32 }
          cleanup
  invoke void @__gmpq_clear(ptr noundef nonnull %ref.tmp)
          to label %ehcleanup unwind label %terminate.lpad.i.i8

terminate.lpad.i.i8:                              ; preds = %lpad3
  %16 = landingpad { ptr, i32 }
          catch ptr null
  %17 = extractvalue { ptr, i32 } %16, 0
  call void @__clang_call_terminate(ptr %17) #23
  unreachable

ehcleanup:                                        ; preds = %lpad3, %lpad, %lpad.i
  %.pn = phi { ptr, i32 } [ %14, %lpad ], [ %0, %lpad.i ], [ %15, %lpad3 ]
  invoke void @__gmpz_clear(ptr noundef nonnull %ref.tmp2)
          to label %eh.resume unwind label %terminate.lpad.i.i11

terminate.lpad.i.i11:                             ; preds = %ehcleanup
  %18 = landingpad { ptr, i32 }
          catch ptr null
  %19 = extractvalue { ptr, i32 } %18, 0
  call void @__clang_call_terminate(ptr %19) #23
  unreachable

lpad5:                                            ; preds = %_ZN4cvc58internal7IntegerD2Ev.exit
  %20 = landingpad { ptr, i32 }
          cleanup
  call void @_ZN4cvc58internal13DeltaRationalD2Ev(ptr noundef nonnull align 8 dereferenceable(64) %floor) #24
  br label %eh.resume

eh.resume:                                        ; preds = %ehcleanup, %lpad5
  %.pn2 = phi { ptr, i32 } [ %20, %lpad5 ], [ %.pn, %ehcleanup ]
  resume { ptr, i32 } %.pn2
}